target datalayout = "e-m:e-p270:32:32-p271:32:32-p272:64:64-i64:64-i128:128-f80:128-n8:16:32:64-S128"
target triple = "x86_64-pc-linux-gnu"

%"struct.std::_Rb_tree_header" = type { %"struct.std::_Rb_tree_node_base", i64 }
%"struct.std::_Rb_tree_node_base" = type { i32, ptr, ptr, ptr }
%"class.sentencepiece::TrainerInterface" = type { ptr, %"class.std::unordered_map", %"class.std::vector.12", %"class.std::vector.17", %"class.sentencepiece::TrainerSpec", %"class.sentencepiece::NormalizerSpec", %"class.sentencepiece::NormalizerSpec", %"class.std::map", %"class.sentencepiece::util::Status", ptr, ptr, %"class.std::vector.32" }
%"class.std::unordered_map" = type { %"class.std::_Hashtable" }
%"class.std::_Hashtable" = type { ptr, i64, %"struct.std::__detail::_Hash_node_base", i64, %"struct.std::__detail::_Prime_rehash_policy", ptr }
%"struct.std::__detail::_Hash_node_base" = type { ptr }
%"struct.std::__detail::_Prime_rehash_policy" = type { float, i64 }
%"class.std::vector.12" = type { %"struct.std::_Vector_base.13" }
%"struct.std::_Vector_base.13" = type { %"struct.std::_Vector_base<std::pair<std::__cxx11::basic_string<char>, float>, std::allocator<std::pair<std::__cxx11::basic_string<char>, float>>>::_Vector_impl" }
%"struct.std::_Vector_base<std::pair<std::__cxx11::basic_string<char>, float>, std::allocator<std::pair<std::__cxx11::basic_string<char>, float>>>::_Vector_impl" = type { %"struct.std::_Vector_base<std::pair<std::__cxx11::basic_string<char>, float>, std::allocator<std::pair<std::__cxx11::basic_string<char>, float>>>::_Vector_impl_data" }
%"struct.std::_Vector_base<std::pair<std::__cxx11::basic_string<char>, float>, std::allocator<std::pair<std::__cxx11::basic_string<char>, float>>>::_Vector_impl_data" = type { ptr, ptr, ptr }
%"class.std::vector.17" = type { %"struct.std::_Vector_base.18" }
%"struct.std::_Vector_base.18" = type { %"struct.std::_Vector_base<std::pair<std::__cxx11::basic_string<char>, long>, std::allocator<std::pair<std::__cxx11::basic_string<char>, long>>>::_Vector_impl" }
%"struct.std::_Vector_base<std::pair<std::__cxx11::basic_string<char>, long>, std::allocator<std::pair<std::__cxx11::basic_string<char>, long>>>::_Vector_impl" = type { %"struct.std::_Vector_base<std::pair<std::__cxx11::basic_string<char>, long>, std::allocator<std::pair<std::__cxx11::basic_string<char>, long>>>::_Vector_impl_data" }
%"struct.std::_Vector_base<std::pair<std::__cxx11::basic_string<char>, long>, std::allocator<std::pair<std::__cxx11::basic_string<char>, long>>>::_Vector_impl_data" = type { ptr, ptr, ptr }
%"class.sentencepiece::TrainerSpec" = type { %"class.google::protobuf::MessageLite", %"class.google::protobuf::internal::ExtensionSet", %"class.google::protobuf::internal::HasBits", %"class.google::protobuf::internal::CachedSize", %"class.google::protobuf::RepeatedPtrField", %"class.google::protobuf::RepeatedPtrField", %"class.google::protobuf::RepeatedPtrField", %"class.google::protobuf::RepeatedPtrField", %"struct.google::protobuf::internal::ArenaStringPtr", %"struct.google::protobuf::internal::ArenaStringPtr", %"struct.google::protobuf::internal::ArenaStringPtr", %"struct.google::protobuf::internal::ArenaStringPtr", %"struct.google::protobuf::internal::ArenaStringPtr", %"struct.google::protobuf::internal::ArenaStringPtr", %"struct.google::protobuf::internal::ArenaStringPtr", %"struct.google::protobuf::internal::ArenaStringPtr", %"struct.google::protobuf::internal::ArenaStringPtr", %"struct.google::protobuf::internal::ArenaStringPtr", i32, i32, i64, i32, i8, i8, i8, i8, i8, i8, i8, i32, float, i64, i32, i32, float, i32, float, i32, i32, i32, i32, i8, i8, i8, i8, i8, i8, i32, i32, i32 }
%"class.google::protobuf::MessageLite" = type { ptr, %"class.google::protobuf::internal::InternalMetadata" }
%"class.google::protobuf::internal::InternalMetadata" = type { ptr }
%"class.google::protobuf::internal::ExtensionSet" = type { ptr, i16, i16, %"union.google::protobuf::internal::ExtensionSet::AllocatedData" }
%"union.google::protobuf::internal::ExtensionSet::AllocatedData" = type { ptr }
%"class.google::protobuf::internal::HasBits" = type { [2 x i32] }
%"class.google::protobuf::internal::CachedSize" = type { %"struct.std::atomic" }
%"struct.std::atomic" = type { %"struct.std::__atomic_base" }
%"struct.std::__atomic_base" = type { i32 }
%"class.google::protobuf::RepeatedPtrField" = type { %"class.google::protobuf::internal::RepeatedPtrFieldBase" }
%"class.google::protobuf::internal::RepeatedPtrFieldBase" = type { ptr, i32, i32, ptr }
%"struct.google::protobuf::internal::ArenaStringPtr" = type { %"class.google::protobuf::internal::TaggedPtr" }
%"class.google::protobuf::internal::TaggedPtr" = type { ptr }
%"class.sentencepiece::NormalizerSpec" = type <{ %"class.google::protobuf::MessageLite", %"class.google::protobuf::internal::ExtensionSet", %"class.google::protobuf::internal::HasBits.22", %"class.google::protobuf::internal::CachedSize", %"struct.google::protobuf::internal::ArenaStringPtr", %"struct.google::protobuf::internal::ArenaStringPtr", %"struct.google::protobuf::internal::ArenaStringPtr", i8, i8, i8, [5 x i8] }>
%"class.google::protobuf::internal::HasBits.22" = type { [1 x i32] }
%"class.std::map" = type { %"class.std::_Rb_tree.23" }
%"class.std::_Rb_tree.23" = type { %"struct.std::_Rb_tree<int, std::pair<const int, std::pair<std::__cxx11::basic_string<char>, sentencepiece::ModelProto_SentencePiece_Type>>, std::_Select1st<std::pair<const int, std::pair<std::__cxx11::basic_string<char>, sentencepiece::ModelProto_SentencePiece_Type>>>, std::less<int>>::_Rb_tree_impl" }
%"struct.std::_Rb_tree<int, std::pair<const int, std::pair<std::__cxx11::basic_string<char>, sentencepiece::ModelProto_SentencePiece_Type>>, std::_Select1st<std::pair<const int, std::pair<std::__cxx11::basic_string<char>, sentencepiece::ModelProto_SentencePiece_Type>>>, std::less<int>>::_Rb_tree_impl" = type { %"struct.std::_Rb_tree_key_compare.27", %"struct.std::_Rb_tree_header" }
%"struct.std::_Rb_tree_key_compare.27" = type { %"struct.std::less.28" }
%"struct.std::less.28" = type { i8 }
%"class.sentencepiece::util::Status" = type { %"class.std::unique_ptr" }
%"class.std::unique_ptr" = type { %"struct.std::__uniq_ptr_data" }
%"struct.std::__uniq_ptr_data" = type { %"class.std::__uniq_ptr_impl" }
%"class.std::__uniq_ptr_impl" = type { %"class.std::tuple" }
%"class.std::tuple" = type { %"struct.std::_Tuple_impl" }
%"struct.std::_Tuple_impl" = type { %"struct.std::_Head_base.31" }
%"struct.std::_Head_base.31" = type { ptr }
%"class.std::vector.32" = type { %"struct.std::_Vector_base.33" }
%"struct.std::_Vector_base.33" = type { %"struct.std::_Vector_base<std::__cxx11::basic_string<char>, std::allocator<std::__cxx11::basic_string<char>>>::_Vector_impl" }
%"struct.std::_Vector_base<std::__cxx11::basic_string<char>, std::allocator<std::__cxx11::basic_string<char>>>::_Vector_impl" = type { %"struct.std::_Vector_base<std::__cxx11::basic_string<char>, std::allocator<std::__cxx11::basic_string<char>>>::_Vector_impl_data" }
%"struct.std::_Vector_base<std::__cxx11::basic_string<char>, std::allocator<std::__cxx11::basic_string<char>>>::_Vector_impl_data" = type { ptr, ptr, ptr }
%"class.sentencepiece::bpe::Trainer" = type { %"class.sentencepiece::TrainerInterface", %"class.std::unordered_map.37", %"class.std::set.56", %"class.std::vector.64", %"class.std::vector.69" }
%"class.std::unordered_map.37" = type { %"class.std::_Hashtable.38" }
%"class.std::_Hashtable.38" = type { ptr, i64, %"struct.std::__detail::_Hash_node_base", i64, %"struct.std::__detail::_Prime_rehash_policy", ptr }
%"class.std::set.56" = type { %"class.std::_Rb_tree.57" }
%"class.std::_Rb_tree.57" = type { %"struct.std::_Rb_tree<sentencepiece::bpe::Trainer::Symbol *, sentencepiece::bpe::Trainer::Symbol *, std::_Identity<sentencepiece::bpe::Trainer::Symbol *>, std::less<sentencepiece::bpe::Trainer::Symbol *>>::_Rb_tree_impl" }
%"struct.std::_Rb_tree<sentencepiece::bpe::Trainer::Symbol *, sentencepiece::bpe::Trainer::Symbol *, std::_Identity<sentencepiece::bpe::Trainer::Symbol *>, std::less<sentencepiece::bpe::Trainer::Symbol *>>::_Rb_tree_impl" = type { %"struct.std::_Rb_tree_key_compare.61", %"struct.std::_Rb_tree_header" }
%"struct.std::_Rb_tree_key_compare.61" = type { %"struct.std::less.62" }
%"struct.std::less.62" = type { i8 }
%"class.std::vector.64" = type { %"struct.std::_Vector_base.65" }
%"struct.std::_Vector_base.65" = type { %"struct.std::_Vector_base<sentencepiece::bpe::Trainer::Symbol *, std::allocator<sentencepiece::bpe::Trainer::Symbol *>>::_Vector_impl" }
%"struct.std::_Vector_base<sentencepiece::bpe::Trainer::Symbol *, std::allocator<sentencepiece::bpe::Trainer::Symbol *>>::_Vector_impl" = type { %"struct.std::_Vector_base<sentencepiece::bpe::Trainer::Symbol *, std::allocator<sentencepiece::bpe::Trainer::Symbol *>>::_Vector_impl_data" }
%"struct.std::_Vector_base<sentencepiece::bpe::Trainer::Symbol *, std::allocator<sentencepiece::bpe::Trainer::Symbol *>>::_Vector_impl_data" = type { ptr, ptr, ptr }
%"class.std::vector.69" = type { %"struct.std::_Vector_base.70" }
%"struct.std::_Vector_base.70" = type { %"struct.std::_Vector_base<std::vector<sentencepiece::bpe::Trainer::Symbol *>, std::allocator<std::vector<sentencepiece::bpe::Trainer::Symbol *>>>::_Vector_impl" }
%"struct.std::_Vector_base<std::vector<sentencepiece::bpe::Trainer::Symbol *>, std::allocator<std::vector<sentencepiece::bpe::Trainer::Symbol *>>>::_Vector_impl" = type { %"struct.std::_Vector_base<std::vector<sentencepiece::bpe::Trainer::Symbol *>, std::allocator<std::vector<sentencepiece::bpe::Trainer::Symbol *>>>::_Vector_impl_data" }
%"struct.std::_Vector_base<std::vector<sentencepiece::bpe::Trainer::Symbol *>, std::allocator<std::vector<sentencepiece::bpe::Trainer::Symbol *>>>::_Vector_impl_data" = type { ptr, ptr, ptr }

; Function Attrs: mustprogress nounwind uwtable
define linkonce_odr noundef nonnull align 8 dereferenceable(8) ptr @_ZNKSt6vectorIPN13sentencepiece3bpe7Trainer6SymbolESaIS4_EEixEm(ptr noundef nonnull align 8 dereferenceable(24) %0, i64 noundef %1) #5 comdat align 2 {
  %3 = alloca ptr, align 8
  %4 = alloca i64, align 8
  store ptr %0, ptr %3, align 8
  store i64 %1, ptr %4, align 8
  %5 = load ptr, ptr %3, align 8
  %6 = getelementptr inbounds %"struct.std::_Vector_base.65", ptr %5, i32 0, i32 0
  %7 = getelementptr inbounds %"struct.std::_Vector_base<sentencepiece::bpe::Trainer::Symbol *, std::allocator<sentencepiece::bpe::Trainer::Symbol *>>::_Vector_impl_data", ptr %6, i32 0, i32 0
  %8 = load ptr, ptr %7, align 8
  %9 = load i64, ptr %4, align 8
  %10 = getelementptr inbounds ptr, ptr %8, i64 %9
  ret ptr %10
}

; Function Attrs: mustprogress nounwind uwtable
define linkonce_odr noundef i64 @_ZNKSt6vectorIPN13sentencepiece3bpe7Trainer6SymbolESaIS4_EE4sizeEv(ptr noundef nonnull align 8 dereferenceable(24) %0) #5 comdat align 2 {
  %2 = alloca ptr, align 8
  store ptr %0, ptr %2, align 8
  %3 = load ptr, ptr %2, align 8
  %4 = getelementptr inbounds %"struct.std::_Vector_base.65", ptr %3, i32 0, i32 0
  %5 = getelementptr inbounds %"struct.std::_Vector_base<sentencepiece::bpe::Trainer::Symbol *, std::allocator<sentencepiece::bpe::Trainer::Symbol *>>::_Vector_impl_data", ptr %4, i32 0, i32 1
  %6 = load ptr, ptr %5, align 8
  %7 = getelementptr inbounds %"struct.std::_Vector_base.65", ptr %3, i32 0, i32 0
  %8 = getelementptr inbounds %"struct.std::_Vector_base<sentencepiece::bpe::Trainer::Symbol *, std::allocator<sentencepiece::bpe::Trainer::Symbol *>>::_Vector_impl_data", ptr %7, i32 0, i32 0
  %9 = load ptr, ptr %8, align 8
  %10 = ptrtoint ptr %6 to i64
  %11 = ptrtoint ptr %9 to i64
  %12 = sub i64 %10, %11
  %13 = sdiv exact i64 %12, 8
  ret i64 %13
}

; Function Attrs: mustprogress nounwind uwtable
define linkonce_odr noundef nonnull align 8 dereferenceable(24) ptr @_ZNKSt6vectorIS_IPN13sentencepiece3bpe7Trainer6SymbolESaIS4_EESaIS6_EEixEm(ptr noundef nonnull align 8 dereferenceable(24) %0, i64 noundef %1) #5 comdat align 2 {
  %3 = alloca ptr, align 8
  %4 = alloca i64, align 8
  store ptr %0, ptr %3, align 8
  store i64 %1, ptr %4, align 8
  %5 = load ptr, ptr %3, align 8
  %6 = getelementptr inbounds %"struct.std::_Vector_base.70", ptr %5, i32 0, i32 0
  %7 = getelementptr inbounds %"struct.std::_Vector_base<std::vector<sentencepiece::bpe::Trainer::Symbol *>, std::allocator<std::vector<sentencepiece::bpe::Trainer::Symbol *>>>::_Vector_impl_data", ptr %6, i32 0, i32 0
  %8 = load ptr, ptr %7, align 8
  %9 = load i64, ptr %4, align 8
  %10 = getelementptr inbounds %"class.std::vector.64", ptr %8, i64 %9
  ret ptr %10
}

; Function Attrs: mustprogress nounwind uwtable
define noundef i32 @_ZNK13sentencepiece3bpe7Trainer12GetNextIndexEii(ptr noundef nonnull align 8 dereferenceable(856) %0, i32 noundef %1, i32 noundef %2) #5 align 2 {
  %4 = alloca i32, align 4
  %5 = alloca ptr, align 8
  %6 = alloca i32, align 4
  %7 = alloca i32, align 4
  %8 = alloca i64, align 8
  store ptr %0, ptr %5, align 8
  store i32 %1, ptr %6, align 4
  store i32 %2, ptr %7, align 4
  %9 = load ptr, ptr %5, align 8
  %10 = load i32, ptr %7, align 4
  %11 = add nsw i32 %10, 1
  %12 = sext i32 %11 to i64
  store i64 %12, ptr %8, align 8
  br label %13

13:                                               ; preds = %34, %3
  %14 = load i64, ptr %8, align 8
  %15 = getelementptr inbounds %"class.sentencepiece::bpe::Trainer", ptr %9, i32 0, i32 4
  %16 = load i32, ptr %6, align 4
  %17 = sext i32 %16 to i64
  %18 = call noundef nonnull align 8 dereferenceable(24) ptr @_ZNKSt6vectorIS_IPN13sentencepiece3bpe7Trainer6SymbolESaIS4_EESaIS6_EEixEm(ptr noundef nonnull align 8 dereferenceable(24) %15, i64 noundef %17) #3
  %19 = call noundef i64 @_ZNKSt6vectorIPN13sentencepiece3bpe7Trainer6SymbolESaIS4_EE4sizeEv(ptr noundef nonnull align 8 dereferenceable(24) %18) #3
  %20 = icmp ult i64 %14, %19
  br i1 %20, label %21, label %37

21:                                               ; preds = %13
  %22 = getelementptr inbounds %"class.sentencepiece::bpe::Trainer", ptr %9, i32 0, i32 4
  %23 = load i32, ptr %6, align 4
  %24 = sext i32 %23 to i64
  %25 = call noundef nonnull align 8 dereferenceable(24) ptr @_ZNKSt6vectorIS_IPN13sentencepiece3bpe7Trainer6SymbolESaIS4_EESaIS6_EEixEm(ptr noundef nonnull align 8 dereferenceable(24) %22, i64 noundef %24) #3
  %26 = load i64, ptr %8, align 8
  %27 = call noundef nonnull align 8 dereferenceable(8) ptr @_ZNKSt6vectorIPN13sentencepiece3bpe7Trainer6SymbolESaIS4_EEixEm(ptr noundef nonnull align 8 dereferenceable(24) %25, i64 noundef %26) #3
  %28 = load ptr, ptr %27, align 8
  %29 = icmp eq ptr %28, null
  br i1 %29, label %30, label %31

30:                                               ; preds = %21
  br label %34

31:                                               ; preds = %21
  %32 = load i64, ptr %8, align 8
  %33 = trunc i64 %32 to i32
  store i32 %33, ptr %4, align 4
  br label %38

34:                                               ; preds = %30
  %35 = load i64, ptr %8, align 8
  %36 = add i64 %35, 1
  store i64 %36, ptr %8, align 8
  br label %13, !llvm.loop !6

37:                                               ; preds = %13
  store i32 -1, ptr %4, align 4
  br label %38

38:                                               ; preds = %37, %31
  %39 = load i32, ptr %4, align 4
  ret i32 %39
}