; Function Attrs: mustprogress nofree norecurse nosync nounwind willreturn memory(read, inaccessiblemem: none) uwtable
define noundef i32 @_ZNK13sentencepiece3bpe7Trainer12GetNextIndexEii(ptr nocapture noundef nonnull readonly align 8 dereferenceable(856) %0, i32 noundef %1, i32 noundef %2) local_unnamed_addr #8 align 2 {
  %4 = add nsw i32 %2, 1
  %5 = sext i32 %4 to i64
  %6 = getelementptr inbounds i8, ptr %0, i64 832
  %7 = sext i32 %1 to i64
  %8 = load ptr, ptr %6, align 8
  %9 = getelementptr inbounds %"class.std::vector.64", ptr %8, i64 %7
  %10 = getelementptr inbounds i8, ptr %9, i64 8
  %11 = load ptr, ptr %10, align 8
  %12 = load ptr, ptr %9, align 8
  %13 = ptrtoint ptr %11 to i64
  %14 = ptrtoint ptr %12 to i64
  %15 = sub i64 %13, %14
  %16 = ashr exact i64 %15, 3
  %17 = icmp ugt i64 %16, %5
  br i1 %17, label %.lr.ph, label %.loopexit

.lr.ph:                                           ; preds = %3, %23
  %.010 = phi i64 [ %24, %23 ], [ %5, %3 ]
  %18 = getelementptr inbounds ptr, ptr %12, i64 %.010
  %19 = load ptr, ptr %18, align 8
  %20 = icmp eq ptr %19, null
  br i1 %20, label %23, label %21

21:                                               ; preds = %.lr.ph
  %22 = trunc i64 %.010 to i32
  br label %.loopexit

23:                                               ; preds = %.lr.ph
  %24 = add nuw i64 %.010, 1
  %25 = icmp ult i64 %24, %16
  br i1 %25, label %.lr.ph, label %.loopexit, !llvm.loop !10

.loopexit:                                        ; preds = %23, %3, %21
  %.08 = phi i32 [ %22, %21 ], [ -1, %3 ], [ -1, %23 ]
  ret i32 %.08
}